target datalayout = "e-m:e-p270:32:32-p271:32:32-p272:64:64-i64:64-i128:128-f80:128-n8:16:32:64-S128"
target triple = "x86_64-pc-linux-gnu"

%class.rational = type { %class.mpq }
%class.mpq = type { %class.mpz, %class.mpz }
%class.mpz = type { i32, i8, ptr }
%class.ref_vector = type { %class.ref_vector_core }
%class.ref_vector_core = type { %class.ref_manager_wrapper, %class.ptr_vector }
%class.ref_manager_wrapper = type { ptr }
%class.ptr_vector = type { %class.vector.4 }
%class.vector.4 = type { ptr }
%class.pb_util = type { ptr, i32, %class.vector.289, %class.vector.290, %class.rational }
%class.vector.289 = type { ptr }
%class.vector.290 = type { ptr }
%class.svector.87 = type { %class.vector.88 }
%class.vector.88 = type { ptr }
%class.ptr_vector.164 = type { %class.vector.165 }
%class.vector.165 = type { ptr }
%class.svector.5 = type { %class.vector.6 }
%class.vector.6 = type { ptr }
%class.svector.195 = type { %class.vector.196 }
%class.vector.196 = type { ptr }
%class.uint_set = type { %class.svector.5 }
%class.svector.254 = type { %class.vector.255 }
%class.vector.255 = type { ptr }
%class.svector.11 = type { %class.vector.12 }
%class.vector.12 = type { ptr }
%"class.smt::theory_pb" = type { %"class.smt::theory.base", [3 x i8], %struct.theory_pb_params, %class.svector.291, %class.mpz_manager, %class._scoped_numeral_vector, %class.svector.5, %class.svector.5, %class.svector.195, %class.pb_util, %"struct.smt::theory_pb::stats", i32, i8, i32, i32, %class.uint_set, %class.svector.5, %class.svector.5, i32, %class.svector.195, i32, %class.svector.87, %class.svector.5, i32, %class.svector.195, %class.tracked_uint_set, %class.ref_vector, %class.svector.11, %class.ref_vector, %class.svector.11, %class.vector.295, %class.svector.5 }
%"class.smt::theory.base" = type <{ ptr, i32, [4 x i8], ptr, ptr, %class.ptr_vector.164, %class.svector.5, i32, i8 }>
%struct.theory_pb_params = type <{ i32, i8, [3 x i8] }>
%class.svector.291 = type { %class.vector.292 }
%class.vector.292 = type { ptr }
%class.mpz_manager = type { %class.small_object_allocator, %"class.std::recursive_mutex", [4 x i8], i32, %class.mpz, %class.mpz }
%class.small_object_allocator = type { [32 x ptr], [32 x ptr], i64 }
%"class.std::recursive_mutex" = type { %"class.std::__recursive_mutex_base" }
%"class.std::__recursive_mutex_base" = type { %union.pthread_mutex_t }
%union.pthread_mutex_t = type { %struct.__pthread_mutex_s }
%struct.__pthread_mutex_s = type { i32, i32, i32, i32, i32, i16, i16, %struct.__pthread_internal_list }
%struct.__pthread_internal_list = type { ptr, ptr }
%class._scoped_numeral_vector = type { %class.svector.293, ptr }
%class.svector.293 = type { %class.vector.294 }
%class.vector.294 = type { ptr }
%"struct.smt::theory_pb::stats" = type { i32, i32, i32, i32 }
%class.tracked_uint_set = type { %class.svector.254, %class.svector.5 }
%class.vector.295 = type { ptr }

; Function Attrs: mustprogress nounwind uwtable
define linkonce_odr hidden void @_ZN6vectorIjLb0EjE5resetEv(ptr noundef nonnull align 8 dereferenceable(8) %0) #4 comdat align 2 {
  %2 = alloca ptr, align 8
  store ptr %0, ptr %2, align 8, !tbaa !693
  %3 = load ptr, ptr %2, align 8
  %4 = getelementptr inbounds nuw %class.vector.6, ptr %3, i32 0, i32 0
  %5 = load ptr, ptr %4, align 8, !tbaa !731
  %6 = icmp ne ptr %5, null
  br i1 %6, label %7, label %11

7:                                                ; preds = %1
  %8 = getelementptr inbounds nuw %class.vector.6, ptr %3, i32 0, i32 0
  %9 = load ptr, ptr %8, align 8, !tbaa !731
  %10 = getelementptr inbounds i32, ptr %9, i64 -1
  store i32 0, ptr %10, align 4, !tbaa !8
  br label %11

11:                                               ; preds = %7, %1
  ret void
}

; Function Attrs: mustprogress nounwind uwtable
define linkonce_odr hidden noundef nonnull align 4 dereferenceable(4) ptr @_ZN6vectorIiLb0EjEixEj(ptr noundef nonnull align 8 dereferenceable(8) %0, i32 noundef %1) #4 comdat align 2 {
  %3 = alloca ptr, align 8
  %4 = alloca i32, align 4
  store ptr %0, ptr %3, align 8, !tbaa !697
  store i32 %1, ptr %4, align 4, !tbaa !8
  %5 = load ptr, ptr %3, align 8
  %6 = getelementptr inbounds nuw %class.vector.88, ptr %5, i32 0, i32 0
  %7 = load ptr, ptr %6, align 8, !tbaa !875
  %8 = load i32, ptr %4, align 4, !tbaa !8
  %9 = zext i32 %8 to i64
  %10 = getelementptr inbounds nuw i32, ptr %7, i64 %9
  ret ptr %10
}

; Function Attrs: mustprogress nounwind uwtable
define linkonce_odr hidden noundef nonnull align 4 dereferenceable(4) ptr @_ZN6vectorIjLb0EjEixEj(ptr noundef nonnull align 8 dereferenceable(8) %0, i32 noundef %1) #4 comdat align 2 {
  %3 = alloca ptr, align 8
  %4 = alloca i32, align 4
  store ptr %0, ptr %3, align 8, !tbaa !693
  store i32 %1, ptr %4, align 4, !tbaa !8
  %5 = load ptr, ptr %3, align 8
  %6 = getelementptr inbounds nuw %class.vector.6, ptr %5, i32 0, i32 0
  %7 = load ptr, ptr %6, align 8, !tbaa !731
  %8 = load i32, ptr %4, align 4, !tbaa !8
  %9 = zext i32 %8 to i64
  %10 = getelementptr inbounds nuw i32, ptr %7, i64 %9
  ret ptr %10
}

; Function Attrs: mustprogress nounwind uwtable
define linkonce_odr hidden noundef i32 @_ZNK6vectorIjLb0EjE4sizeEv(ptr noundef nonnull align 8 dereferenceable(8) %0) #4 comdat align 2 {
  %2 = alloca i32, align 4
  %3 = alloca ptr, align 8
  store ptr %0, ptr %3, align 8, !tbaa !693
  %4 = load ptr, ptr %3, align 8
  %5 = getelementptr inbounds nuw %class.vector.6, ptr %4, i32 0, i32 0
  %6 = load ptr, ptr %5, align 8, !tbaa !731
  %7 = icmp eq ptr %6, null
  br i1 %7, label %8, label %9

8:                                                ; preds = %1
  store i32 0, ptr %2, align 4
  br label %14

9:                                                ; preds = %1
  %10 = getelementptr inbounds nuw %class.vector.6, ptr %4, i32 0, i32 0
  %11 = load ptr, ptr %10, align 8, !tbaa !731
  %12 = getelementptr inbounds i32, ptr %11, i64 -1
  %13 = load i32, ptr %12, align 4, !tbaa !8
  store i32 %13, ptr %2, align 4
  br label %14

14:                                               ; preds = %9, %8
  %15 = load i32, ptr %2, align 4
  ret i32 %15
}

; Function Attrs: mustprogress uwtable
define hidden void @_ZN3smt9theory_pb12reset_coeffsEv(ptr noundef nonnull align 8 dereferenceable(968) %0) #6 align 2 {
  %2 = alloca ptr, align 8
  %3 = alloca i32, align 4
  store ptr %0, ptr %2, align 8, !tbaa !624
  %4 = load ptr, ptr %2, align 8
  call void @llvm.lifetime.start.p0(i64 4, ptr %3) #3
  store i32 0, ptr %3, align 4, !tbaa !8
  br label %5

5:                                                ; preds = %18, %1
  %6 = load i32, ptr %3, align 4, !tbaa !8
  %7 = getelementptr inbounds nuw %"class.smt::theory_pb", ptr %4, i32 0, i32 22
  %8 = call noundef i32 @_ZNK6vectorIjLb0EjE4sizeEv(ptr noundef nonnull align 8 dereferenceable(8) %7)
  %9 = icmp ult i32 %6, %8
  br i1 %9, label %11, label %10

10:                                               ; preds = %5
  call void @llvm.lifetime.end.p0(i64 4, ptr %3) #3
  br label %21

11:                                               ; preds = %5
  %12 = getelementptr inbounds nuw %"class.smt::theory_pb", ptr %4, i32 0, i32 21
  %13 = getelementptr inbounds nuw %"class.smt::theory_pb", ptr %4, i32 0, i32 22
  %14 = load i32, ptr %3, align 4, !tbaa !8
  %15 = call noundef nonnull align 4 dereferenceable(4) ptr @_ZN6vectorIjLb0EjEixEj(ptr noundef nonnull align 8 dereferenceable(8) %13, i32 noundef %14)
  %16 = load i32, ptr %15, align 4, !tbaa !8
  %17 = call noundef nonnull align 4 dereferenceable(4) ptr @_ZN6vectorIiLb0EjEixEj(ptr noundef nonnull align 8 dereferenceable(8) %12, i32 noundef %16)
  store i32 0, ptr %17, align 4, !tbaa !8
  br label %18

18:                                               ; preds = %11
  %19 = load i32, ptr %3, align 4, !tbaa !8
  %20 = add i32 %19, 1
  store i32 %20, ptr %3, align 4, !tbaa !8
  br label %5, !llvm.loop !876

21:                                               ; preds = %10
  %22 = getelementptr inbounds nuw %"class.smt::theory_pb", ptr %4, i32 0, i32 22
  call void @_ZN6vectorIjLb0EjE5resetEv(ptr noundef nonnull align 8 dereferenceable(8) %22)
  ret void
}