; Function Attrs: mustprogress nofree norecurse nosync nounwind memory(readwrite, inaccessiblemem: none) uwtable
define hidden void @_ZN3smt9theory_pb12reset_coeffsEv(ptr noundef nonnull readonly align 8 captures(none) dereferenceable(968) %0) local_unnamed_addr #10 align 2 {
  %2 = getelementptr inbounds nuw i8, ptr %0, i64 864
  %3 = load ptr, ptr %2, align 8, !tbaa !660
  %4 = icmp eq ptr %3, null
  br i1 %4, label %_ZN6vectorIjLb0EjE5resetEv.exit, label %_ZNK6vectorIjLb0EjE4sizeEv.exit.thread.lr.ph

_ZNK6vectorIjLb0EjE4sizeEv.exit.thread.lr.ph:     ; preds = %1
  %5 = getelementptr inbounds i8, ptr %3, i64 -4
  %6 = getelementptr inbounds nuw i8, ptr %0, i64 856
  %7 = load ptr, ptr %6, align 8
  %8 = load i32, ptr %5, align 4, !tbaa !9
  %.not = icmp eq i32 %8, 0
  br i1 %.not, label %.split, label %_ZNK6vectorIjLb0EjE4sizeEv.exit.thread

.split:                                           ; preds = %_ZNK6vectorIjLb0EjE4sizeEv.exit.thread, %_ZNK6vectorIjLb0EjE4sizeEv.exit.thread.lr.ph
  store i32 0, ptr %5, align 4, !tbaa !9
  br label %_ZN6vectorIjLb0EjE5resetEv.exit

_ZN6vectorIjLb0EjE5resetEv.exit:                  ; preds = %1, %.split
  ret void

_ZNK6vectorIjLb0EjE4sizeEv.exit.thread:           ; preds = %_ZNK6vectorIjLb0EjE4sizeEv.exit.thread.lr.ph, %_ZNK6vectorIjLb0EjE4sizeEv.exit.thread
  %indvars.iv = phi i64 [ %indvars.iv.next, %_ZNK6vectorIjLb0EjE4sizeEv.exit.thread ], [ 0, %_ZNK6vectorIjLb0EjE4sizeEv.exit.thread.lr.ph ]
  %9 = getelementptr inbounds nuw i32, ptr %3, i64 %indvars.iv
  %10 = load i32, ptr %9, align 4, !tbaa !9
  %11 = zext i32 %10 to i64
  %12 = getelementptr inbounds nuw i32, ptr %7, i64 %11
  store i32 0, ptr %12, align 4, !tbaa !9
  %indvars.iv.next = add nuw nsw i64 %indvars.iv, 1
  %13 = load i32, ptr %5, align 4, !tbaa !9
  %14 = zext i32 %13 to i64
  %15 = icmp samesign ult i64 %indvars.iv.next, %14
  br i1 %15, label %_ZNK6vectorIjLb0EjE4sizeEv.exit.thread, label %.split
}